target datalayout = "e-m:e-p270:32:32-p271:32:32-p272:64:64-i64:64-i128:128-f80:128-n8:16:32:64-S128"
target triple = "x86_64-pc-linux-gnu"

%struct.strbuf = type { i64, i64, ptr }

@comment_line_str = external global ptr, align 8
@__const.template_untouched.tmpl = private unnamed_addr constant %struct.strbuf { i64 0, i64 0, ptr @strbuf_slopbuf }, align 8
@sign_off_header = internal constant [16 x i8] c"Signed-off-by: \00", align 16
@sane_ctype = external constant [256 x i8], align 16

; Function Attrs: nounwind uwtable
define internal i32 @rest_is_empty(ptr noundef %0, i32 noundef %1) #0 {
  %3 = alloca i32, align 4
  %4 = alloca ptr, align 8
  %5 = alloca i32, align 4
  %6 = alloca i32, align 4
  %7 = alloca i32, align 4
  %8 = alloca ptr, align 8
  %9 = alloca i32, align 4
  store ptr %0, ptr %4, align 8, !tbaa !41
  store i32 %1, ptr %5, align 4, !tbaa !29
  call void @llvm.lifetime.start.p0(i64 4, ptr %6) #11
  call void @llvm.lifetime.start.p0(i64 4, ptr %7) #11
  call void @llvm.lifetime.start.p0(i64 8, ptr %8) #11
  %10 = load i32, ptr %5, align 4, !tbaa !29
  store i32 %10, ptr %6, align 4, !tbaa !29
  br label %11

11:                                               ; preds = %88, %2
  %12 = load i32, ptr %6, align 4, !tbaa !29
  %13 = sext i32 %12 to i64
  %14 = load ptr, ptr %4, align 8, !tbaa !41
  %15 = getelementptr inbounds nuw %struct.strbuf, ptr %14, i32 0, i32 1
  %16 = load i64, ptr %15, align 8, !tbaa !45
  %17 = icmp ult i64 %13, %16
  br i1 %17, label %18, label %91

18:                                               ; preds = %11
  %19 = load ptr, ptr %4, align 8, !tbaa !41
  %20 = getelementptr inbounds nuw %struct.strbuf, ptr %19, i32 0, i32 2
  %21 = load ptr, ptr %20, align 8, !tbaa !37
  %22 = load i32, ptr %6, align 4, !tbaa !29
  %23 = sext i32 %22 to i64
  %24 = getelementptr inbounds i8, ptr %21, i64 %23
  %25 = load ptr, ptr %4, align 8, !tbaa !41
  %26 = getelementptr inbounds nuw %struct.strbuf, ptr %25, i32 0, i32 1
  %27 = load i64, ptr %26, align 8, !tbaa !45
  %28 = load i32, ptr %6, align 4, !tbaa !29
  %29 = sext i32 %28 to i64
  %30 = sub i64 %27, %29
  %31 = call ptr @memchr(ptr noundef %24, i32 noundef 10, i64 noundef %30) #12
  store ptr %31, ptr %8, align 8, !tbaa !4
  %32 = load ptr, ptr %8, align 8, !tbaa !4
  %33 = icmp ne ptr %32, null
  br i1 %33, label %34, label %43

34:                                               ; preds = %18
  %35 = load ptr, ptr %8, align 8, !tbaa !4
  %36 = load ptr, ptr %4, align 8, !tbaa !41
  %37 = getelementptr inbounds nuw %struct.strbuf, ptr %36, i32 0, i32 2
  %38 = load ptr, ptr %37, align 8, !tbaa !37
  %39 = ptrtoint ptr %35 to i64
  %40 = ptrtoint ptr %38 to i64
  %41 = sub i64 %39, %40
  %42 = trunc i64 %41 to i32
  store i32 %42, ptr %7, align 4, !tbaa !29
  br label %48

43:                                               ; preds = %18
  %44 = load ptr, ptr %4, align 8, !tbaa !41
  %45 = getelementptr inbounds nuw %struct.strbuf, ptr %44, i32 0, i32 1
  %46 = load i64, ptr %45, align 8, !tbaa !45
  %47 = trunc i64 %46 to i32
  store i32 %47, ptr %7, align 4, !tbaa !29
  br label %48

48:                                               ; preds = %43, %34
  %49 = load i32, ptr %7, align 4, !tbaa !29
  %50 = load i32, ptr %6, align 4, !tbaa !29
  %51 = sub nsw i32 %49, %50
  %52 = sext i32 %51 to i64
  %53 = icmp ule i64 15, %52
  br i1 %53, label %54, label %65

54:                                               ; preds = %48
  %55 = load ptr, ptr %4, align 8, !tbaa !41
  %56 = getelementptr inbounds nuw %struct.strbuf, ptr %55, i32 0, i32 2
  %57 = load ptr, ptr %56, align 8, !tbaa !37
  %58 = load i32, ptr %6, align 4, !tbaa !29
  %59 = sext i32 %58 to i64
  %60 = getelementptr inbounds i8, ptr %57, i64 %59
  %61 = call i32 @starts_with(ptr noundef %60, ptr noundef @sign_off_header)
  %62 = icmp ne i32 %61, 0
  br i1 %62, label %63, label %65

63:                                               ; preds = %54
  %64 = load i32, ptr %7, align 4, !tbaa !29
  store i32 %64, ptr %6, align 4, !tbaa !29
  br label %88

65:                                               ; preds = %54, %48
  br label %66

66:                                               ; preds = %86, %65
  %67 = load i32, ptr %6, align 4, !tbaa !29
  %68 = load i32, ptr %7, align 4, !tbaa !29
  %69 = icmp slt i32 %67, %68
  br i1 %69, label %70, label %87

70:                                               ; preds = %66
  %71 = load ptr, ptr %4, align 8, !tbaa !41
  %72 = getelementptr inbounds nuw %struct.strbuf, ptr %71, i32 0, i32 2
  %73 = load ptr, ptr %72, align 8, !tbaa !37
  %74 = load i32, ptr %6, align 4, !tbaa !29
  %75 = add nsw i32 %74, 1
  store i32 %75, ptr %6, align 4, !tbaa !29
  %76 = sext i32 %74 to i64
  %77 = getelementptr inbounds i8, ptr %73, i64 %76
  %78 = load i8, ptr %77, align 1, !tbaa !30
  %79 = zext i8 %78 to i64
  %80 = getelementptr inbounds nuw [256 x i8], ptr @sane_ctype, i64 0, i64 %79
  %81 = load i8, ptr %80, align 1, !tbaa !30
  %82 = zext i8 %81 to i32
  %83 = and i32 %82, 1
  %84 = icmp ne i32 %83, 0
  br i1 %84, label %86, label %85

85:                                               ; preds = %70
  store i32 0, ptr %3, align 4
  store i32 1, ptr %9, align 4
  br label %92

86:                                               ; preds = %70
  br label %66, !llvm.loop !79

87:                                               ; preds = %66
  br label %88

88:                                               ; preds = %87, %63
  %89 = load i32, ptr %6, align 4, !tbaa !29
  %90 = add nsw i32 %89, 1
  store i32 %90, ptr %6, align 4, !tbaa !29
  br label %11, !llvm.loop !80

91:                                               ; preds = %11
  store i32 1, ptr %3, align 4
  store i32 1, ptr %9, align 4
  br label %92

92:                                               ; preds = %91, %85
  call void @llvm.lifetime.end.p0(i64 8, ptr %8) #11
  call void @llvm.lifetime.end.p0(i64 4, ptr %7) #11
  call void @llvm.lifetime.end.p0(i64 4, ptr %6) #11
  %93 = load i32, ptr %3, align 4
  ret i32 %93
}

; Function Attrs: inlinehint nounwind uwtable
define internal zeroext i1 @skip_prefix(ptr noundef %0, ptr noundef %1, ptr noundef %2) #1 {
  %4 = alloca i1, align 1
  %5 = alloca ptr, align 8
  %6 = alloca ptr, align 8
  %7 = alloca ptr, align 8
  store ptr %0, ptr %5, align 8, !tbaa !4
  store ptr %1, ptr %6, align 8, !tbaa !4
  store ptr %2, ptr %7, align 8, !tbaa !67
  br label %8

8:                                                ; preds = %16, %3
  %9 = load ptr, ptr %6, align 8, !tbaa !4
  %10 = load i8, ptr %9, align 1, !tbaa !30
  %11 = icmp ne i8 %10, 0
  br i1 %11, label %15, label %12

12:                                               ; preds = %8
  %13 = load ptr, ptr %5, align 8, !tbaa !4
  %14 = load ptr, ptr %7, align 8, !tbaa !67
  store ptr %13, ptr %14, align 8, !tbaa !4
  store i1 true, ptr %4, align 1
  br label %27

15:                                               ; preds = %8
  br label %16

16:                                               ; preds = %15
  %17 = load ptr, ptr %5, align 8, !tbaa !4
  %18 = getelementptr inbounds nuw i8, ptr %17, i32 1
  store ptr %18, ptr %5, align 8, !tbaa !4
  %19 = load i8, ptr %17, align 1, !tbaa !30
  %20 = sext i8 %19 to i32
  %21 = load ptr, ptr %6, align 8, !tbaa !4
  %22 = getelementptr inbounds nuw i8, ptr %21, i32 1
  store ptr %22, ptr %6, align 8, !tbaa !4
  %23 = load i8, ptr %21, align 1, !tbaa !30
  %24 = sext i8 %23 to i32
  %25 = icmp eq i32 %20, %24
  br i1 %25, label %8, label %26, !llvm.loop !81

26:                                               ; preds = %16
  store i1 false, ptr %4, align 1
  br label %27

27:                                               ; preds = %26, %12
  %28 = load i1, ptr %4, align 1
  ret i1 %28
}

; Function Attrs: nounwind uwtable
define dso_local i32 @template_untouched(ptr noundef %0, ptr noundef %1, i32 noundef %2) #0 {
  %4 = alloca i32, align 4
  %5 = alloca ptr, align 8
  %6 = alloca ptr, align 8
  %7 = alloca i32, align 4
  %8 = alloca %struct.strbuf, align 8
  %9 = alloca ptr, align 8
  %10 = alloca i32, align 4
  store ptr %0, ptr %5, align 8, !tbaa !41
  store ptr %1, ptr %6, align 8, !tbaa !4
  store i32 %2, ptr %7, align 4, !tbaa !29
  call void @llvm.lifetime.start.p0(i64 24, ptr %8) #11
  call void @llvm.memcpy.p0.p0.i64(ptr align 8 %8, ptr align 8 @__const.template_untouched.tmpl, i64 24, i1 false)
  call void @llvm.lifetime.start.p0(i64 8, ptr %9) #11
  %11 = load i32, ptr %7, align 4, !tbaa !29
  %12 = icmp eq i32 %11, 1
  br i1 %12, label %13, label %19

13:                                               ; preds = %3
  %14 = load ptr, ptr %5, align 8, !tbaa !41
  %15 = getelementptr inbounds nuw %struct.strbuf, ptr %14, i32 0, i32 1
  %16 = load i64, ptr %15, align 8, !tbaa !45
  %17 = icmp ne i64 %16, 0
  br i1 %17, label %18, label %19

18:                                               ; preds = %13
  store i32 0, ptr %4, align 4
  store i32 1, ptr %10, align 4
  br label %56

19:                                               ; preds = %13, %3
  %20 = load ptr, ptr %6, align 8, !tbaa !4
  %21 = icmp ne ptr %20, null
  br i1 %21, label %22, label %26

22:                                               ; preds = %19
  %23 = load ptr, ptr %6, align 8, !tbaa !4
  %24 = call i64 @strbuf_read_file(ptr noundef %8, ptr noundef %23, i64 noundef 0)
  %25 = icmp sle i64 %24, 0
  br i1 %25, label %26, label %27

26:                                               ; preds = %22, %19
  store i32 0, ptr %4, align 4
  store i32 1, ptr %10, align 4
  br label %56

27:                                               ; preds = %22
  %28 = load i32, ptr %7, align 4, !tbaa !29
  %29 = icmp eq i32 %28, 3
  br i1 %29, label %30, label %32

30:                                               ; preds = %27
  %31 = load ptr, ptr @comment_line_str, align 8, !tbaa !4
  br label %33

32:                                               ; preds = %27
  br label %33

33:                                               ; preds = %32, %30
  %34 = phi ptr [ %31, %30 ], [ null, %32 ]
  call void @strbuf_stripspace(ptr noundef %8, ptr noundef %34)
  %35 = load ptr, ptr %5, align 8, !tbaa !41
  %36 = getelementptr inbounds nuw %struct.strbuf, ptr %35, i32 0, i32 2
  %37 = load ptr, ptr %36, align 8, !tbaa !37
  %38 = getelementptr inbounds nuw %struct.strbuf, ptr %8, i32 0, i32 2
  %39 = load ptr, ptr %38, align 8, !tbaa !37
  %40 = call zeroext i1 @skip_prefix(ptr noundef %37, ptr noundef %39, ptr noundef %9)
  br i1 %40, label %45, label %41

41:                                               ; preds = %33
  %42 = load ptr, ptr %5, align 8, !tbaa !41
  %43 = getelementptr inbounds nuw %struct.strbuf, ptr %42, i32 0, i32 2
  %44 = load ptr, ptr %43, align 8, !tbaa !37
  store ptr %44, ptr %9, align 8, !tbaa !4
  br label %45

45:                                               ; preds = %41, %33
  call void @strbuf_release(ptr noundef %8)
  %46 = load ptr, ptr %5, align 8, !tbaa !41
  %47 = load ptr, ptr %9, align 8, !tbaa !4
  %48 = load ptr, ptr %5, align 8, !tbaa !41
  %49 = getelementptr inbounds nuw %struct.strbuf, ptr %48, i32 0, i32 2
  %50 = load ptr, ptr %49, align 8, !tbaa !37
  %51 = ptrtoint ptr %47 to i64
  %52 = ptrtoint ptr %50 to i64
  %53 = sub i64 %51, %52
  %54 = trunc i64 %53 to i32
  %55 = call i32 @rest_is_empty(ptr noundef %46, i32 noundef %54)
  store i32 %55, ptr %4, align 4
  store i32 1, ptr %10, align 4
  br label %56

56:                                               ; preds = %45, %26, %18
  call void @llvm.lifetime.end.p0(i64 8, ptr %9) #11
  call void @llvm.lifetime.end.p0(i64 24, ptr %8) #11
  %57 = load i32, ptr %4, align 4
  ret i32 %57
}