; Function Attrs: nounwind uwtable
define dso_local range(i32 0, 2) i32 @template_untouched(ptr noundef readonly captures(none) %0, ptr noundef %1, i32 noundef %2) local_unnamed_addr #0 {
  %4 = alloca %struct.strbuf, align 8
  call void @llvm.lifetime.start.p0(i64 24, ptr nonnull %4) #20
  call void @llvm.memcpy.p0.p0.i64(ptr noundef nonnull align 8 dereferenceable(24) %4, ptr noundef nonnull align 8 dereferenceable(24) @__const.make_script_with_merges.label_from_message, i64 24, i1 false)
  %5 = icmp eq i32 %2, 1
  br i1 %5, label %6, label %9

6:                                                ; preds = %3
  %7 = getelementptr inbounds nuw i8, ptr %0, i64 8
  %8 = load i64, ptr %7, align 8, !tbaa !33
  %.not = icmp ne i64 %8, 0
  %.not10 = icmp eq ptr %1, null
  %or.cond = or i1 %.not10, %.not
  br i1 %or.cond, label %rest_is_empty.exit, label %10

9:                                                ; preds = %3
  %.not10.old = icmp eq ptr %1, null
  br i1 %.not10.old, label %rest_is_empty.exit, label %10

10:                                               ; preds = %6, %9
  %11 = call i64 @strbuf_read_file(ptr noundef nonnull %4, ptr noundef nonnull %1, i64 noundef 0) #20
  %12 = icmp slt i64 %11, 1
  br i1 %12, label %rest_is_empty.exit, label %13

13:                                               ; preds = %10
  %14 = icmp eq i32 %2, 3
  %15 = load ptr, ptr @comment_line_str, align 8
  %16 = select i1 %14, ptr %15, ptr null
  call void @strbuf_stripspace(ptr noundef nonnull %4, ptr noundef %16) #20
  %17 = getelementptr inbounds nuw i8, ptr %0, i64 16
  %18 = load ptr, ptr %17, align 8, !tbaa !31
  %19 = getelementptr inbounds nuw i8, ptr %4, i64 16
  %20 = load ptr, ptr %19, align 8, !tbaa !31
  br label %21

21:                                               ; preds = %23, %13
  %.07.i = phi ptr [ %18, %13 ], [ %24, %23 ]
  %.06.i = phi ptr [ %20, %13 ], [ %26, %23 ]
  %22 = load i8, ptr %.06.i, align 1, !tbaa !24
  %.not.i = icmp eq i8 %22, 0
  br i1 %.not.i, label %skip_prefix.exit, label %23

23:                                               ; preds = %21
  %24 = getelementptr inbounds nuw i8, ptr %.07.i, i64 1
  %25 = load i8, ptr %.07.i, align 1, !tbaa !24
  %26 = getelementptr inbounds nuw i8, ptr %.06.i, i64 1
  %27 = icmp eq i8 %25, %22
  br i1 %27, label %21, label %skip_prefix.exit, !llvm.loop !65

skip_prefix.exit:                                 ; preds = %21, %23
  %.012 = phi ptr [ %18, %23 ], [ %.07.i, %21 ]
  call void @strbuf_release(ptr noundef nonnull %4) #20
  %28 = load ptr, ptr %17, align 8, !tbaa !31
  %29 = ptrtoint ptr %.012 to i64
  %30 = ptrtoint ptr %28 to i64
  %31 = sub i64 %29, %30
  %32 = getelementptr inbounds nuw i8, ptr %0, i64 8
  %sext = shl i64 %31, 32
  %33 = ashr exact i64 %sext, 32
  %34 = load i64, ptr %32, align 8, !tbaa !33
  %35 = icmp ugt i64 %34, %33
  br i1 %35, label %.lr.ph.i.preheader, label %rest_is_empty.exit

.lr.ph.i.preheader:                               ; preds = %skip_prefix.exit
  %36 = trunc i64 %31 to i32
  br label %.lr.ph.i

.lr.ph.i:                                         ; preds = %.lr.ph.i.preheader, %.loopexit.i
  %37 = phi i64 [ %63, %.loopexit.i ], [ %34, %.lr.ph.i.preheader ]
  %38 = phi i64 [ %62, %.loopexit.i ], [ %33, %.lr.ph.i.preheader ]
  %.02231.i = phi i32 [ %61, %.loopexit.i ], [ %36, %.lr.ph.i.preheader ]
  %39 = load ptr, ptr %17, align 8, !tbaa !31
  %40 = getelementptr inbounds i8, ptr %39, i64 %38
  %41 = sub nuw i64 %37, %38
  %42 = call ptr @memchr(ptr noundef %40, i32 noundef 10, i64 noundef %41) #21
  %.not.i11 = icmp eq ptr %42, null
  %43 = ptrtoint ptr %42 to i64
  %44 = ptrtoint ptr %39 to i64
  %45 = sub i64 %43, %44
  %.021.in.i = select i1 %.not.i11, i64 %37, i64 %45
  %.021.i = trunc i64 %.021.in.i to i32
  %46 = sub nsw i32 %.021.i, %.02231.i
  %47 = icmp ugt i32 %46, 14
  br i1 %47, label %48, label %50

48:                                               ; preds = %.lr.ph.i
  %49 = call i32 @starts_with(ptr noundef %40, ptr noundef nonnull @sign_off_header) #20
  %.not26.i = icmp eq i32 %49, 0
  br i1 %.not26.i, label %50, label %.loopexit.i

50:                                               ; preds = %48, %.lr.ph.i
  %51 = sext i32 %.02231.i to i64
  %smax.i = call i32 @llvm.smax.i32(i32 %.02231.i, i32 %.021.i)
  %wide.trip.count.i = sext i32 %smax.i to i64
  br label %52

52:                                               ; preds = %53, %50
  %indvars.iv.i = phi i64 [ %indvars.iv.next.i, %53 ], [ %51, %50 ]
  %exitcond.not.i = icmp eq i64 %indvars.iv.i, %wide.trip.count.i
  br i1 %exitcond.not.i, label %.loopexit.i, label %53

53:                                               ; preds = %52
  %54 = load ptr, ptr %17, align 8, !tbaa !31
  %indvars.iv.next.i = add nsw i64 %indvars.iv.i, 1
  %55 = getelementptr inbounds i8, ptr %54, i64 %indvars.iv.i
  %56 = load i8, ptr %55, align 1, !tbaa !24
  %57 = zext i8 %56 to i64
  %58 = getelementptr inbounds nuw [256 x i8], ptr @sane_ctype, i64 0, i64 %57
  %59 = load i8, ptr %58, align 1, !tbaa !24
  %60 = and i8 %59, 1
  %.not27.i = icmp eq i8 %60, 0
  br i1 %.not27.i, label %rest_is_empty.exit, label %52, !llvm.loop !63

.loopexit.i:                                      ; preds = %52, %48
  %.1.i = phi i32 [ %.021.i, %48 ], [ %smax.i, %52 ]
  %61 = add nsw i32 %.1.i, 1
  %62 = sext i32 %61 to i64
  %63 = load i64, ptr %32, align 8, !tbaa !33
  %64 = icmp ugt i64 %63, %62
  br i1 %64, label %.lr.ph.i, label %rest_is_empty.exit, !llvm.loop !64

rest_is_empty.exit:                               ; preds = %.loopexit.i, %53, %skip_prefix.exit, %9, %10, %6
  %.0 = phi i32 [ 0, %6 ], [ 0, %10 ], [ 0, %9 ], [ 1, %skip_prefix.exit ], [ 0, %53 ], [ 1, %.loopexit.i ]
  call void @llvm.lifetime.end.p0(i64 24, ptr nonnull %4) #20
  ret i32 %.0
}